Certificate:
    Data:
        Version: 3 (0x2)
        Serial Number: 7 (0x7)
    Signature Algorithm: sha256WithRSAEncryption
        Issuer: C=NL, ST=Utrecht, L=Rhenen, O=Test CA, Limited, OU=Server Research Department, CN=Test CA/emailAddress=test@example.com
        Validity
            Not Before: Jul  8 01:49:36 2019 GMT
            Not After : Apr  3 01:49:36 2022 GMT
        Subject: C=NL, ST=Utrecht, L=Rhenen, O=Test Server, Limited, CN=Test Server
        Subject Public Key Info:
            Public Key Algorithm: rsaEncryption
                Public-Key: (2048 bit)
                Modulus:
                    00:be:11:47:f2:02:a7:1d:b4:3c:af:e7:86:68:c8:
                    75:d0:eb:64:42:7d:32:00:9a:ce:41:29:90:8d:83:
                    15:c1:af:5e:85:ab:0a:88:b9:66:54:6a:c1:91:bd:
                    df:9e:29:5b:cc:89:47:73:c6:cd:5a:2b:e5:d5:8b:
                    b2:ed:d2:f0:e7:4f:e1:54:f0:84:6c:37:a6:f6:23:
                    71:1c:79:d6:36:84:02:54:f5:95:1d:45:ce:18:b8:
                    58:9e:32:2b:8f:bc:80:fe:12:6e:5a:3c:76:e2:bd:
                    00:41:5f:b5:73:2a:2a:82:9f:ce:7c:08:a7:0d:15:
                    1e:ed:35:74:4d:4e:09:f4:d3:ff:d5:ce:1b:03:dc:
                    e5:0a:a5:aa:9e:62:0b:8c:39:64:50:87:f2:44:26:
                    82:dd:ff:d3:5b:6b:8b:c1:79:6a:81:f8:bf:a2:f3:
                    f4:e2:0b:d6:cb:c8:e0:54:3e:5f:76:49:b4:1a:21:
                    82:fe:14:48:e9:3d:66:3f:e9:e4:ce:0f:88:84:a5:
                    05:2c:7a:00:97:4e:7c:1d:e0:4c:c7:02:ad:37:7d:
                    a0:b6:b5:d0:c1:fe:9b:48:f6:33:c2:3c:08:89:35:
                    86:bf:08:81:f5:b2:d1:13:3d:92:69:15:e6:31:1d:
                    5f:7d:c1:3d:56:23:5d:32:02:e8:ff:e0:b3:4c:15:
                    87:77
                Exponent: 65537 (0x10001)
        X509v3 extensions:
            X509v3 Subject Key Identifier: 
                51:BD:8F:03:90:F6:34:A6:09:21:A6:6E:56:63:E1:13:5B:76:3B:66
            X509v3 Authority Key Identifier: 
                keyid:8C:96:69:8A:59:13:AB:32:AF:CA:15:3F:9D:E3:97:C1:6E:C6:EF:28

            X509v3 Basic Constraints: 
                CA:TRUE
            X509v3 Key Usage: 
                Digital Signature, Key Encipherment
            X509v3 Subject Alternative Name: 
                DNS:example.com, DNS:www.example.com, DNS:mail.example.com, DNS:ftp.example.com, IP Address:192.168.99.100, IP Address:192.168.56.1, IP Address:192.168.2.75
            Netscape Comment: 
                OpenSSL Generated Certificate
    Signature Algorithm: sha256WithRSAEncryption
         68:db:99:49:7a:bd:ba:06:7b:66:90:bf:0e:8b:98:ae:5d:f7:
         f2:bd:7d:06:df:bd:c3:84:8d:48:db:50:55:06:5b:7c:bb:4a:
         4a:79:5e:0e:d9:77:19:af:b4:cb:45:c4:73:4e:32:d9:d5:3d:
         af:f0:82:fc:17:de:c2:74:2e:d0:7e:e1:3a:bb:80:16:5d:60:
         f1:02:82:e1:ef:e5:30:46:83:e4:88:ca:9e:1c:3d:bc:03:43:
         e4:3a:47:93:09:48:47:01:de:f0:11:dd:b3:9e:f7:47:98:31:
         5c:f1:27:a2:ca:7f:2c:2b:59:55:39:a7:e4:8f:b8:ce:40:dd:
         65:69:c2:94:e9:f4:f4:65:e3:e7:3b:9c:06:1f:fb:84:2d:ab:
         9f:cc:aa:82:d9:6d:c7:e1:36:78:e0:c6:98:0c:cb:0a:c5:dc:
         1b:cf:77:d5:53:d1:f7:71:43:6f:f5:d2:ed:24:2b:dc:70:53:
         92:4c:6f:43:fc:59:5e:5c:51:25:de:20:b0:f2:d1:1c:2e:a8:
         67:6e:d9:08:49:fe:b0:e4:71:b6:f5:67:07:2e:89:da:c1:06:
         d0:31:2a:34:26:62:7b:f2:a6:30:20:1a:90:88:41:02:71:da:
         51:1d:2f:58:ae:35:d5:f3:3c:6f:6f:bd:67:f8:11:45:75:eb:
         39:e6:7e:b2:36:88:09:ad:b6:a5:87:b3:ab:84:1c:c7:26:e0:
         6c:15:b1:a3:ce:ff:9a:26:e4:71:97:56:ac:76:08:fd:60:52:
         8e:2f:e5:dc:c4:98:51:43:d3:21:54:62:52:bd:45:ce:58:c7:
         41:ab:2b:a3:3d:64:49:46:fd:5b:1f:a2:28:25:df:b1:66:0b:
         a2:0e:13:e4:b5:55:00:18:fc:db:f8:db:c2:19:59:61:5e:c9:
         13:1e:30:1e:82:54:b5:b7:a3:bb:9b:97:2c:31:55:97:55:62:
         d6:0f:b4:cb:47:f3:53:f7:8e:00:8f:ac:41:d0:0c:15:ce:9a:
         54:f6:f8:c3:17:95:16:b9:32:6b:28:a1:d0:da:63:df:5e:ee:
         43:18:19:9b:62:b3:24:ac:9c:41:22:ef:b8:e0:ee:dd:37:98:
         ed:85:18:c8:8e:ac:98:d4:66:02:14:b8:5b:63:07:0c:80:af:
         46:61:76:e7:a7:29:07:65:6e:e6:18:3b:ea:97:17:db:c4:6d:
         80:00:d8:eb:45:ad:3d:94:40:5e:b5:63:4c:6b:47:df:11:ff:
         dc:4d:4d:b3:d4:ab:e3:3f:71:43:4d:4b:76:f4:99:f4:2a:12:
         aa:c2:f5:4f:58:66:a8:7c:5b:9f:8b:4d:80:ef:8d:c3:8c:3f:
         db:05:7f:d0:7a:41:d3:9c
-----BEGIN CERTIFICATE-----
MIIFbzCCA1egAwIBAgIBBzANBgkqhkiG9w0BAQsFADCBozELMAkGA1UEBhMCTkwx
EDAOBgNVBAgMB1V0cmVjaHQxDzANBgNVBAcMBlJoZW5lbjEZMBcGA1UECgwQVGVz
dCBDQSwgTGltaXRlZDEjMCEGA1UECwwaU2VydmVyIFJlc2VhcmNoIERlcGFydG1l
bnQxEDAOBgNVBAMMB1Rlc3QgQ0ExHzAdBgkqhkiG9w0BCQEWEHRlc3RAZXhhbXBs
ZS5jb20wHhcNMTkwNzA4MDE0OTM2WhcNMjIwNDAzMDE0OTM2WjBlMQswCQYDVQQG
EwJOTDEQMA4GA1UECAwHVXRyZWNodDEPMA0GA1UEBwwGUmhlbmVuMR0wGwYDVQQK
DBRUZXN0IFNlcnZlciwgTGltaXRlZDEUMBIGA1UEAwwLVGVzdCBTZXJ2ZXIwggEi
MA0GCSqGSIb3DQEBAQUAA4IBDwAwggEKAoIBAQC+EUfyAqcdtDyv54ZoyHXQ62RC
fTIAms5BKZCNgxXBr16FqwqIuWZUasGRvd+eKVvMiUdzxs1aK+XVi7Lt0vDnT+FU
8IRsN6b2I3EcedY2hAJU9ZUdRc4YuFieMiuPvID+Em5aPHbivQBBX7VzKiqCn858
CKcNFR7tNXRNTgn00//VzhsD3OUKpaqeYguMOWRQh/JEJoLd/9Nba4vBeWqB+L+i
8/TiC9bLyOBUPl92SbQaIYL+FEjpPWY/6eTOD4iEpQUsegCXTnwd4EzHAq03faC2
tdDB/ptI9jPCPAiJNYa/CIH1stETPZJpFeYxHV99wT1WI10yAuj/4LNMFYd3AgMB
AAGjgeowgecwHQYDVR0OBBYEFFG9jwOQ9jSmCSGmblZj4RNbdjtmMB8GA1UdIwQY
MBaAFIyWaYpZE6syr8oVP53jl8Fuxu8oMAwGA1UdEwQFMAMBAf8wCwYDVR0PBAQD
AgWgMFwGA1UdEQRVMFOCC2V4YW1wbGUuY29tgg93d3cuZXhhbXBsZS5jb22CEG1h
aWwuZXhhbXBsZS5jb22CD2Z0cC5leGFtcGxlLmNvbYcEwKhjZIcEwKg4AYcEwKgC
SzAsBglghkgBhvhCAQ0EHxYdT3BlblNTTCBHZW5lcmF0ZWQgQ2VydGlmaWNhdGUw
DQYJKoZIhvcNAQELBQADggIBAGjbmUl6vboGe2aQvw6LmK5d9/K9fQbfvcOEjUjb
UFUGW3y7Skp5Xg7ZdxmvtMtFxHNOMtnVPa/wgvwX3sJ0LtB+4Tq7gBZdYPECguHv
5TBGg+SIyp4cPbwDQ+Q6R5MJSEcB3vAR3bOe90eYMVzxJ6LKfywrWVU5p+SPuM5A
3WVpwpTp9PRl4+c7nAYf+4Qtq5/MqoLZbcfhNnjgxpgMywrF3BvPd9VT0fdxQ2/1
0u0kK9xwU5JMb0P8WV5cUSXeILDy0RwuqGdu2QhJ/rDkcbb1ZwcuidrBBtAxKjQm
YnvypjAgGpCIQQJx2lEdL1iuNdXzPG9vvWf4EUV16znmfrI2iAmttqWHs6uEHMcm
4GwVsaPO/5om5HGXVqx2CP1gUo4v5dzEmFFD0yFUYlK9Rc5Yx0GrK6M9ZElG/Vsf
oigl37FmC6IOE+S1VQAY/Nv428IZWWFeyRMeMB6CVLW3o7ublywxVZdVYtYPtMtH
81P3jgCPrEHQDBXOmlT2+MMXlRa5MmsoodDaY99e7kMYGZtisySsnEEi77jg7t03
mO2FGMiOrJjUZgIUuFtjBwyAr0ZhduenKQdlbuYYO+qXF9vEbYAA2OtFrT2UQF61
Y0xrR98R/9xNTbPUq+M/cUNNS3b0mfQqEqrC9U9YZqh8W5+LTYDvjcOMP9sFf9B6
QdOc
-----END CERTIFICATE-----
