Certificate:
    Data:
        Version: 3 (0x2)
        Serial Number: 6 (0x6)
    Signature Algorithm: sha256WithRSAEncryption
        Issuer: C=NL, ST=Utrecht, L=Rhenen, O=Test CA, Limited, OU=Server Research Department, CN=Test CA/emailAddress=test@example.com
        Validity
            Not Before: Jul  3 20:52:11 2019 GMT
            Not After : Mar 29 20:52:11 2022 GMT
        Subject: C=NL, ST=Utrecht, L=Rhenen, O=Test Server, Limited, CN=Test Server
        Subject Public Key Info:
            Public Key Algorithm: rsaEncryption
                Public-Key: (2048 bit)
                Modulus:
                    00:cf:ef:cc:13:60:4f:b6:0d:b0:f8:8c:7d:7a:52:
                    62:ad:8f:4c:61:a5:86:3f:5a:25:51:a2:b9:0e:7a:
                    76:73:43:ee:87:54:44:50:a1:0a:39:6f:b5:80:cf:
                    35:af:46:1b:c3:ae:cc:aa:bc:31:80:04:58:27:b1:
                    08:39:ec:6a:91:f1:76:25:9d:4d:37:6e:ad:48:9b:
                    ab:e9:bb:ba:d2:47:be:52:78:66:89:89:0b:d7:82:
                    4d:81:d7:2c:55:55:03:43:6f:5e:46:a8:fb:c5:7a:
                    c6:a0:4a:15:45:b3:e9:91:9a:dc:67:5d:c8:e0:3c:
                    53:79:13:3f:c7:0e:fa:77:5e:a9:04:9b:93:16:d0:
                    df:9b:30:9c:f4:9a:51:be:15:f7:ed:dc:ca:40:fc:
                    07:74:bd:fa:87:fc:3b:7a:58:4b:9a:29:a2:59:09:
                    44:a0:de:30:db:e6:aa:5f:b6:f4:80:f3:19:db:5c:
                    df:a6:7b:bb:e2:0b:d4:45:7b:29:8b:f7:58:08:be:
                    f0:1f:37:b1:ca:9f:6b:46:49:b9:6f:5d:ee:e2:34:
                    45:93:68:f3:da:0f:dc:cb:8a:bd:71:5d:d7:9d:ec:
                    d5:0d:0b:6d:da:96:d6:e6:02:19:68:dd:5d:97:0e:
                    b3:21:bb:de:61:b7:b3:81:e6:d3:6b:80:e8:b7:fa:
                    46:9d
                Exponent: 65537 (0x10001)
        X509v3 extensions:
            X509v3 Subject Key Identifier: 
                D2:27:0F:F8:04:BD:96:25:95:28:22:4F:E6:4D:10:93:6D:51:9E:DE
            X509v3 Authority Key Identifier: 
                keyid:EF:04:DF:81:01:00:69:D8:C8:41:FE:58:07:B8:9D:A6:4A:56:3D:C1

            X509v3 Basic Constraints: 
                CA:TRUE
            X509v3 Key Usage: 
                Digital Signature, Key Encipherment
            X509v3 Subject Alternative Name: 
                DNS:example.com, DNS:www.example.com, DNS:mail.example.com, DNS:ftp.example.com, IP Address:192.168.56.1
            Netscape Comment: 
                OpenSSL Generated Certificate
    Signature Algorithm: sha256WithRSAEncryption
         32:51:ec:9a:06:4c:af:1b:91:1d:98:68:69:96:23:a4:4a:d4:
         bc:a4:f1:2c:28:aa:c6:20:36:c4:c5:81:aa:de:df:85:72:a9:
         f0:f2:b1:98:f8:09:f0:b4:8b:55:c9:d3:d4:d9:f8:1d:50:16:
         95:8c:55:4c:ff:1e:fe:03:bc:a8:28:f6:d1:c5:97:b1:0a:a2:
         a3:44:0f:08:a4:81:d6:71:bc:8f:e3:57:9d:5a:ee:c2:d8:23:
         7e:71:aa:b8:46:37:18:18:1d:90:00:89:e3:c4:c0:36:58:2a:
         9c:7d:a2:34:02:56:4f:28:77:fa:c6:2b:86:29:99:21:f7:96:
         c4:37:74:25:0c:6b:40:88:eb:dd:d9:83:21:37:e5:6b:36:37:
         15:f7:b6:fa:00:37:27:9b:8e:09:b2:c1:07:7a:69:45:8b:57:
         f9:0d:c1:53:dc:66:8c:9d:f1:31:a3:9c:3a:62:6d:70:7f:44:
         b5:36:b4:c9:3a:52:8a:db:70:e6:5f:3e:03:53:4c:af:66:e2:
         21:0b:5f:c7:a4:2a:d6:d5:a1:96:35:53:93:85:a0:06:1a:5f:
         23:3c:dd:3e:ad:b6:4a:c9:c8:94:57:f7:4f:5f:62:52:07:60:
         73:8d:da:6b:b2:45:f1:23:c7:67:21:c3:76:0e:76:f6:0b:9a:
         c5:88:89:92:57:2d:67:19:70:04:57:0c:e4:d5:ea:b0:e5:4e:
         be:a8:7e:4d:32:f0:0d:d8:8e:5e:11:7d:9d:f1:cc:64:7a:60:
         28:2f:55:97:a4:e5:f3:8f:d8:fc:13:34:c6:8c:58:d3:14:40:
         03:f6:5d:66:af:40:5b:6b:71:81:03:cf:93:32:8f:72:c1:b9:
         fd:56:1e:e1:33:ab:b8:3a:8a:5f:65:37:65:86:81:dc:04:58:
         18:6c:8f:bd:49:31:c3:9c:b6:6c:b6:ef:7f:80:70:b9:f7:67:
         38:2e:88:e6:a4:c0:68:38:11:c4:97:e2:1c:c9:48:ee:d3:4d:
         59:06:e8:c3:b0:6d:56:26:af:dd:4e:b7:83:72:28:82:62:1d:
         18:e3:03:71:31:19:7f:57:3a:31:77:9b:cc:99:3e:29:b4:f3:
         a8:c6:4b:cd:6c:1b:de:c9:a6:d3:d1:03:01:40:3f:09:6c:c4:
         2e:bf:a5:b4:3a:c7:14:67:75:be:91:1c:91:b5:09:6e:06:e1:
         25:6c:ef:11:55:16:c1:6a:5c:e0:85:f5:b2:10:8c:e4:b8:04:
         c4:53:7c:33:34:d8:85:9d:9d:47:d7:94:0a:02:21:29:f6:5a:
         23:cf:e7:c3:8c:96:4c:a9:70:3b:2e:6d:1a:75:81:b1:fe:59:
         df:39:11:c8:f8:c3:e7:07
-----BEGIN CERTIFICATE-----
MIIFYzCCA0ugAwIBAgIBBjANBgkqhkiG9w0BAQsFADCBozELMAkGA1UEBhMCTkwx
EDAOBgNVBAgMB1V0cmVjaHQxDzANBgNVBAcMBlJoZW5lbjEZMBcGA1UECgwQVGVz
dCBDQSwgTGltaXRlZDEjMCEGA1UECwwaU2VydmVyIFJlc2VhcmNoIERlcGFydG1l
bnQxEDAOBgNVBAMMB1Rlc3QgQ0ExHzAdBgkqhkiG9w0BCQEWEHRlc3RAZXhhbXBs
ZS5jb20wHhcNMTkwNzAzMjA1MjExWhcNMjIwMzI5MjA1MjExWjBlMQswCQYDVQQG
EwJOTDEQMA4GA1UECAwHVXRyZWNodDEPMA0GA1UEBwwGUmhlbmVuMR0wGwYDVQQK
DBRUZXN0IFNlcnZlciwgTGltaXRlZDEUMBIGA1UEAwwLVGVzdCBTZXJ2ZXIwggEi
MA0GCSqGSIb3DQEBAQUAA4IBDwAwggEKAoIBAQDP78wTYE+2DbD4jH16UmKtj0xh
pYY/WiVRorkOenZzQ+6HVERQoQo5b7WAzzWvRhvDrsyqvDGABFgnsQg57GqR8XYl
nU03bq1Im6vpu7rSR75SeGaJiQvXgk2B1yxVVQNDb15GqPvFesagShVFs+mRmtxn
XcjgPFN5Ez/HDvp3XqkEm5MW0N+bMJz0mlG+Ffft3MpA/Ad0vfqH/Dt6WEuaKaJZ
CUSg3jDb5qpftvSA8xnbXN+me7viC9RFeymL91gIvvAfN7HKn2tGSblvXe7iNEWT
aPPaD9zLir1xXded7NUNC23altbmAhlo3V2XDrMhu95ht7OB5tNrgOi3+kadAgMB
AAGjgd4wgdswHQYDVR0OBBYEFNInD/gEvZYllSgiT+ZNEJNtUZ7eMB8GA1UdIwQY
MBaAFO8E34EBAGnYyEH+WAe4naZKVj3BMAwGA1UdEwQFMAMBAf8wCwYDVR0PBAQD
AgWgMFAGA1UdEQRJMEeCC2V4YW1wbGUuY29tgg93d3cuZXhhbXBsZS5jb22CEG1h
aWwuZXhhbXBsZS5jb22CD2Z0cC5leGFtcGxlLmNvbYcEwKg4ATAsBglghkgBhvhC
AQ0EHxYdT3BlblNTTCBHZW5lcmF0ZWQgQ2VydGlmaWNhdGUwDQYJKoZIhvcNAQEL
BQADggIBADJR7JoGTK8bkR2YaGmWI6RK1Lyk8SwoqsYgNsTFgare34VyqfDysZj4
CfC0i1XJ09TZ+B1QFpWMVUz/Hv4DvKgo9tHFl7EKoqNEDwikgdZxvI/jV51a7sLY
I35xqrhGNxgYHZAAiePEwDZYKpx9ojQCVk8od/rGK4YpmSH3lsQ3dCUMa0CI693Z
gyE35Ws2NxX3tvoANyebjgmywQd6aUWLV/kNwVPcZoyd8TGjnDpibXB/RLU2tMk6
UorbcOZfPgNTTK9m4iELX8ekKtbVoZY1U5OFoAYaXyM83T6ttkrJyJRX909fYlIH
YHON2muyRfEjx2chw3YOdvYLmsWIiZJXLWcZcARXDOTV6rDlTr6ofk0y8A3Yjl4R
fZ3xzGR6YCgvVZek5fOP2PwTNMaMWNMUQAP2XWavQFtrcYEDz5Myj3LBuf1WHuEz
q7g6il9lN2WGgdwEWBhsj71JMcOctmy273+AcLn3ZzguiOakwGg4EcSX4hzJSO7T
TVkG6MOwbVYmr91Ot4NyKIJiHRjjA3ExGX9XOjF3m8yZPim086jGS81sG97JptPR
AwFAPwlsxC6/pbQ6xxRndb6RHJG1CW4G4SVs7xFVFsFqXOCF9bIQjOS4BMRTfDM0
2IWdnUfXlAoCISn2WiPP58OMlkypcDsubRp1gbH+Wd85Ecj4w+cH
-----END CERTIFICATE-----
