Certificate:
    Data:
        Version: 3 (0x2)
        Serial Number: 8 (0x8)
    Signature Algorithm: sha256WithRSAEncryption
        Issuer: C=NL, ST=Utrecht, L=Rhenen, O=gsc, OU=Server Research Department, CN=gsc/emailAddress=test@example.com
        Validity
            Not Before: Jul 10 01:27:01 2019 GMT
            Not After : Apr  5 01:27:01 2022 GMT
        Subject: C=NL, ST=Utrecht, L=Rhenen, O=gsc, CN=gsc
        Subject Public Key Info:
            Public Key Algorithm: rsaEncryption
                Public-Key: (2048 bit)
                Modulus:
                    00:b1:ac:e3:0f:fa:61:46:7d:e3:68:86:31:f8:f4:
                    56:65:18:8f:59:b9:b6:fd:29:fa:1f:ab:ab:05:02:
                    f8:4f:3f:82:c5:80:03:ec:a1:c8:98:ba:ff:e3:5c:
                    ed:79:38:90:7f:b6:f2:9c:38:98:bc:cb:41:33:52:
                    25:33:42:28:ed:19:38:99:33:c8:32:28:14:bd:1c:
                    dc:d1:da:e2:c3:de:25:ad:e4:27:86:e1:b6:b6:b3:
                    6f:17:37:c8:49:46:a6:b5:66:99:ca:9f:a9:9a:8a:
                    c7:44:4b:8f:f9:e8:c5:a6:c9:64:f8:5b:1b:79:3f:
                    25:6f:4d:06:61:5b:89:d7:f7:3b:c9:bc:c7:ab:10:
                    81:0b:09:9e:8c:7c:90:ac:77:c3:72:f5:29:d4:31:
                    1d:95:d3:e0:72:df:76:c8:c3:f5:49:40:71:a8:be:
                    91:07:21:4e:39:9a:d1:03:ef:d1:5c:db:5e:a3:58:
                    33:2e:27:34:22:bd:fc:1f:2e:a6:38:ff:8c:78:7e:
                    0f:7c:eb:eb:c7:58:ab:80:7d:fc:9a:28:65:fa:a1:
                    35:54:fb:d7:0b:68:53:06:76:08:9f:0f:de:34:52:
                    0a:e9:12:f9:7e:94:4e:1a:7e:2e:17:c4:4a:ce:b1:
                    8a:bd:cd:d2:38:99:fd:11:63:b6:f4:ac:a1:41:7a:
                    2a:1d
                Exponent: 65537 (0x10001)
        X509v3 extensions:
            X509v3 Subject Key Identifier: 
                8B:12:2C:48:12:95:2C:64:64:41:37:6E:F6:2F:0E:BE:A2:59:86:0F
            X509v3 Authority Key Identifier: 
                keyid:85:6E:D3:FF:09:6A:23:E2:3B:FA:7A:3A:9A:3B:0A:79:EB:5E:D7:11

            X509v3 Basic Constraints: 
                CA:TRUE
            X509v3 Key Usage: 
                Digital Signature, Key Encipherment
            X509v3 Subject Alternative Name: 
                DNS:example.com, DNS:www.example.com, DNS:mail.example.com, DNS:ftp.example.com, IP Address:192.168.99.100, IP Address:192.168.56.1, IP Address:192.168.2.75
            Netscape Comment: 
                OpenSSL Generated Certificate
    Signature Algorithm: sha256WithRSAEncryption
         80:80:b0:6f:27:c5:4d:b9:e7:c8:4d:78:98:49:5a:2f:44:9d:
         c3:21:34:f1:d5:09:e8:2d:fd:7d:b1:41:07:d7:ac:18:07:05:
         43:e1:af:37:21:32:1e:f4:2e:b0:c6:e2:3a:5e:4c:87:81:0c:
         fb:bf:29:c1:1d:4d:1e:da:c4:8a:13:2a:cd:c0:0d:db:6a:6c:
         ad:b7:a3:f9:08:08:27:93:f4:2c:c9:82:dd:6a:79:e7:d9:a8:
         6c:f0:06:46:87:be:91:b0:5f:a8:97:05:e9:0c:78:25:fe:49:
         e9:73:b1:f1:7a:af:a7:d3:54:e2:b7:67:0c:04:55:e0:8f:35:
         45:0a:86:41:e8:4b:d9:a0:3b:f9:cb:1f:0c:e6:6e:2f:9c:1d:
         5f:4f:ce:a7:7d:b3:20:0f:20:34:78:e6:af:6d:3a:b1:c3:42:
         95:a8:68:d1:09:42:77:60:a0:4a:e2:b7:3a:9c:db:22:b3:f8:
         b9:40:c8:81:78:8a:2b:67:66:bb:91:1f:7a:29:4a:12:03:45:
         6b:86:08:a3:df:ad:0f:08:6a:45:a0:2b:ec:4a:ba:4c:12:a5:
         85:8f:27:6c:23:bf:e5:55:25:21:60:58:a8:e8:71:06:ba:1d:
         bb:d5:9d:da:31:8a:2e:da:f2:af:3d:97:8f:89:7a:f8:1f:34:
         01:3a:c0:a8:36:c4:80:79:eb:ce:bb:76:fd:6d:28:58:81:b3:
         fb:52:74:67:8f:66:90:b1:67:b6:89:2f:5d:1e:55:11:91:c4:
         95:98:b5:fc:d1:30:64:05:4e:88:1a:89:7b:f9:b0:cd:3d:75:
         d9:54:8c:2d:a4:7e:86:73:56:0c:a6:5d:ec:3c:9a:e9:7e:0c:
         4a:c9:54:5a:5c:ed:2c:d0:60:94:72:b0:65:3b:d3:06:41:b3:
         25:b4:46:8a:a1:84:8d:22:b3:f5:96:f3:40:70:02:7b:ab:d4:
         f4:fb:ff:4b:4f:bf:b9:c4:e2:ca:7a:e9:49:7c:e0:05:55:0a:
         90:40:57:66:fa:d4:10:ec:1d:1a:d6:13:21:49:1b:7f:f9:aa:
         dc:c2:6f:eb:4d:c1:84:52:5b:03:ac:50:7d:a6:49:5f:b0:12:
         cf:d3:2b:2e:71:b0:4e:e8:e5:23:24:9d:82:15:a8:21:44:d8:
         a6:96:07:92:6d:a9:3b:dc:e5:b8:f5:e6:39:e6:86:1e:5a:e7:
         b3:8c:95:a3:5b:26:83:c2:ef:bf:3e:e6:00:4b:e8:bf:e6:eb:
         ba:94:a1:80:6f:4e:55:17:02:30:31:e7:e3:19:6a:00:94:57:
         ff:99:c9:5f:ae:82:19:e9:67:ed:76:ec:d3:70:ba:68:e8:95:
         38:e4:04:83:32:36:9b:20
-----BEGIN CERTIFICATE-----
MIIFRTCCAy2gAwIBAgIBCDANBgkqhkiG9w0BAQsFADCBkjELMAkGA1UEBhMCTkwx
EDAOBgNVBAgMB1V0cmVjaHQxDzANBgNVBAcMBlJoZW5lbjEMMAoGA1UECgwDZ3Nj
MSMwIQYDVQQLDBpTZXJ2ZXIgUmVzZWFyY2ggRGVwYXJ0bWVudDEMMAoGA1UEAwwD
Z3NjMR8wHQYJKoZIhvcNAQkBFhB0ZXN0QGV4YW1wbGUuY29tMB4XDTE5MDcxMDAx
MjcwMVoXDTIyMDQwNTAxMjcwMVowTDELMAkGA1UEBhMCTkwxEDAOBgNVBAgMB1V0
cmVjaHQxDzANBgNVBAcMBlJoZW5lbjEMMAoGA1UECgwDZ3NjMQwwCgYDVQQDDANn
c2MwggEiMA0GCSqGSIb3DQEBAQUAA4IBDwAwggEKAoIBAQCxrOMP+mFGfeNohjH4
9FZlGI9Zubb9Kfofq6sFAvhPP4LFgAPsociYuv/jXO15OJB/tvKcOJi8y0EzUiUz
QijtGTiZM8gyKBS9HNzR2uLD3iWt5CeG4ba2s28XN8hJRqa1ZpnKn6maisdES4/5
6MWmyWT4Wxt5PyVvTQZhW4nX9zvJvMerEIELCZ6MfJCsd8Ny9SnUMR2V0+By33bI
w/VJQHGovpEHIU45mtED79Fc216jWDMuJzQivfwfLqY4/4x4fg986+vHWKuAffya
KGX6oTVU+9cLaFMGdgifD940UgrpEvl+lE4afi4XxErOsYq9zdI4mf0RY7b0rKFB
eiodAgMBAAGjgeowgecwHQYDVR0OBBYEFIsSLEgSlSxkZEE3bvYvDr6iWYYPMB8G
A1UdIwQYMBaAFIVu0/8JaiPiO/p6Opo7CnnrXtcRMAwGA1UdEwQFMAMBAf8wCwYD
VR0PBAQDAgWgMFwGA1UdEQRVMFOCC2V4YW1wbGUuY29tgg93d3cuZXhhbXBsZS5j
b22CEG1haWwuZXhhbXBsZS5jb22CD2Z0cC5leGFtcGxlLmNvbYcEwKhjZIcEwKg4
AYcEwKgCSzAsBglghkgBhvhCAQ0EHxYdT3BlblNTTCBHZW5lcmF0ZWQgQ2VydGlm
aWNhdGUwDQYJKoZIhvcNAQELBQADggIBAICAsG8nxU2558hNeJhJWi9EncMhNPHV
Cegt/X2xQQfXrBgHBUPhrzchMh70LrDG4jpeTIeBDPu/KcEdTR7axIoTKs3ADdtq
bK23o/kICCeT9CzJgt1qeefZqGzwBkaHvpGwX6iXBekMeCX+SelzsfF6r6fTVOK3
ZwwEVeCPNUUKhkHoS9mgO/nLHwzmbi+cHV9Pzqd9syAPIDR45q9tOrHDQpWoaNEJ
QndgoEritzqc2yKz+LlAyIF4iitnZruRH3opShIDRWuGCKPfrQ8IakWgK+xKukwS
pYWPJ2wjv+VVJSFgWKjocQa6HbvVndoxii7a8q89l4+JevgfNAE6wKg2xIB56867
dv1tKFiBs/tSdGePZpCxZ7aJL10eVRGRxJWYtfzRMGQFTogaiXv5sM09ddlUjC2k
foZzVgymXew8mul+DErJVFpc7SzQYJRysGU70wZBsyW0RoqhhI0is/WW80BwAnur
1PT7/0tPv7nE4sp66Ul84AVVCpBAV2b61BDsHRrWEyFJG3/5qtzCb+tNwYRSWwOs
UH2mSV+wEs/TKy5xsE7o5SMknYIVqCFE2KaWB5JtqTvc5bj15jnmhh5a57OMlaNb
JoPC778+5gBL6L/m67qUoYBvTlUXAjAx5+MZagCUV/+ZyV+ughnpZ+127NNwumjo
lTjkBIMyNpsg
-----END CERTIFICATE-----
